target datalayout = "e-m:e-p270:32:32-p271:32:32-p272:64:64-i64:64-i128:128-f80:128-n8:16:32:64-S128"
target triple = "x86_64-pc-linux-gnu"

%"class.std::__cxx11::basic_string" = type { %"struct.std::__cxx11::basic_string<char>::_Alloc_hider", i64, %union.anon }
%"struct.std::__cxx11::basic_string<char>::_Alloc_hider" = type { ptr }
%union.anon = type { i64, [8 x i8] }
%"class.clang::ento::CheckerNameRef" = type { %"class.llvm::StringRef" }
%"class.llvm::StringRef" = type { ptr, i64 }
%"class.clang::ento::CheckerBase" = type { %"class.clang::ProgramPointTag", %"class.clang::ento::CheckerNameRef" }
%"class.clang::ProgramPointTag" = type { ptr, ptr }
%"class.(anonymous namespace)::ExprInspectionChecker" = type { %"class.clang::ento::Checker", %"class.clang::ento::BugType", %"class.llvm::DenseMap.122" }
%"class.clang::ento::Checker" = type { %"class.clang::ento::CheckerBase" }
%"class.clang::ento::BugType" = type <{ ptr, %"class.clang::ento::CheckerNameRef", %"class.std::__cxx11::basic_string", %"class.std::__cxx11::basic_string", ptr, i8, [7 x i8] }>
%"class.llvm::DenseMap.122" = type <{ ptr, i32, i32, i32, [4 x i8] }>
%"struct.llvm::detail::DenseMapPair.125" = type { %"struct.std::pair.126" }
%"struct.std::pair.126" = type { ptr, %"struct.(anonymous namespace)::ExprInspectionChecker::ReachedStat" }
%"struct.(anonymous namespace)::ExprInspectionChecker::ReachedStat" = type { ptr, i32 }

@_ZTVN5clang4ento7BugTypeE = external unnamed_addr constant { [5 x ptr] }, align 8

; Function Attrs: mustprogress nounwind uwtable
define internal noundef ptr @_ZNK4llvm8DenseMapIPKN5clang8CallExprEN12_GLOBAL__N_121ExprInspectionChecker11ReachedStatENS_12DenseMapInfoIS4_vEENS_6detail12DenseMapPairIS4_S7_EEE10getBucketsEv(ptr noundef nonnull align 8 dereferenceable(20) %0) #0 align 2 {
  %2 = alloca ptr, align 8
  store ptr %0, ptr %2, align 8
  %3 = load ptr, ptr %2, align 8
  %4 = getelementptr inbounds nuw %"class.llvm::DenseMap.122", ptr %3, i32 0, i32 0
  %5 = load ptr, ptr %4, align 8
  ret ptr %5
}

; Function Attrs: mustprogress nounwind uwtable
define linkonce_odr hidden noundef ptr @_ZN4llvm12DenseMapInfoIPKN5clang8CallExprEvE15getTombstoneKeyEv() #0 comdat align 2 {
  %1 = alloca i64, align 8
  store i64 -2, ptr %1, align 8
  %2 = load i64, ptr %1, align 8
  %3 = shl i64 %2, 12
  store i64 %3, ptr %1, align 8
  %4 = load i64, ptr %1, align 8
  %5 = inttoptr i64 %4 to ptr
  ret ptr %5
}

; Function Attrs: mustprogress nounwind uwtable
define linkonce_odr hidden noundef ptr @_ZN4llvm12DenseMapInfoIPKN5clang8CallExprEvE11getEmptyKeyEv() #0 comdat align 2 {
  %1 = alloca i64, align 8
  store i64 -1, ptr %1, align 8
  %2 = load i64, ptr %1, align 8
  %3 = shl i64 %2, 12
  store i64 %3, ptr %1, align 8
  %4 = load i64, ptr %1, align 8
  %5 = inttoptr i64 %4 to ptr
  ret ptr %5
}

; Function Attrs: mustprogress nounwind uwtable
define internal noundef i32 @_ZNK4llvm8DenseMapIPKN5clang8CallExprEN12_GLOBAL__N_121ExprInspectionChecker11ReachedStatENS_12DenseMapInfoIS4_vEENS_6detail12DenseMapPairIS4_S7_EEE13getNumBucketsEv(ptr noundef nonnull align 8 dereferenceable(20) %0) #0 align 2 {
  %2 = alloca ptr, align 8
  store ptr %0, ptr %2, align 8
  %3 = load ptr, ptr %2, align 8
  %4 = getelementptr inbounds nuw %"class.llvm::DenseMap.122", ptr %3, i32 0, i32 3
  %5 = load i32, ptr %4, align 8
  ret i32 %5
}

; Function Attrs: mustprogress nounwind uwtable
define internal noundef nonnull align 8 dereferenceable(16) ptr @_ZN4llvm6detail12DenseMapPairIPKN5clang8CallExprEN12_GLOBAL__N_121ExprInspectionChecker11ReachedStatEE9getSecondEv(ptr noundef nonnull align 8 dereferenceable(24) %0) #0 align 2 {
  %2 = alloca ptr, align 8
  store ptr %0, ptr %2, align 8
  %3 = load ptr, ptr %2, align 8
  %4 = getelementptr inbounds nuw %"struct.std::pair.126", ptr %3, i32 0, i32 1
  ret ptr %4
}

; Function Attrs: mustprogress nounwind uwtable
define linkonce_odr hidden noundef zeroext i1 @_ZN4llvm12DenseMapInfoIPKN5clang8CallExprEvE7isEqualES4_S4_(ptr noundef %0, ptr noundef %1) #0 comdat align 2 {
  %3 = alloca ptr, align 8
  %4 = alloca ptr, align 8
  store ptr %0, ptr %3, align 8
  store ptr %1, ptr %4, align 8
  %5 = load ptr, ptr %3, align 8
  %6 = load ptr, ptr %4, align 8
  %7 = icmp eq ptr %5, %6
  ret i1 %7
}

; Function Attrs: mustprogress nounwind uwtable
define internal noundef nonnull align 8 dereferenceable(8) ptr @_ZN4llvm6detail12DenseMapPairIPKN5clang8CallExprEN12_GLOBAL__N_121ExprInspectionChecker11ReachedStatEE8getFirstEv(ptr noundef nonnull align 8 dereferenceable(24) %0) #0 align 2 {
  %2 = alloca ptr, align 8
  store ptr %0, ptr %2, align 8
  %3 = load ptr, ptr %2, align 8
  %4 = getelementptr inbounds nuw %"struct.std::pair.126", ptr %3, i32 0, i32 0
  ret ptr %4
}

; Function Attrs: mustprogress nounwind uwtable
define internal noundef ptr @_ZN4llvm12DenseMapBaseINS_8DenseMapIPKN5clang8CallExprEN12_GLOBAL__N_121ExprInspectionChecker11ReachedStatENS_12DenseMapInfoIS5_vEENS_6detail12DenseMapPairIS5_S8_EEEES5_S8_SA_SD_E13getBucketsEndEv(ptr noundef nonnull align 1 dereferenceable(1) %0) #0 align 2 {
  %2 = alloca ptr, align 8
  store ptr %0, ptr %2, align 8
  %3 = load ptr, ptr %2, align 8
  %4 = call noundef ptr @_ZN4llvm12DenseMapBaseINS_8DenseMapIPKN5clang8CallExprEN12_GLOBAL__N_121ExprInspectionChecker11ReachedStatENS_12DenseMapInfoIS5_vEENS_6detail12DenseMapPairIS5_S8_EEEES5_S8_SA_SD_E10getBucketsEv(ptr noundef nonnull align 1 dereferenceable(1) %3)
  %5 = call noundef i32 @_ZNK4llvm12DenseMapBaseINS_8DenseMapIPKN5clang8CallExprEN12_GLOBAL__N_121ExprInspectionChecker11ReachedStatENS_12DenseMapInfoIS5_vEENS_6detail12DenseMapPairIS5_S8_EEEES5_S8_SA_SD_E13getNumBucketsEv(ptr noundef nonnull align 1 dereferenceable(1) %3)
  %6 = zext i32 %5 to i64
  %7 = getelementptr inbounds %"struct.llvm::detail::DenseMapPair.125", ptr %4, i64 %6
  ret ptr %7
}

; Function Attrs: mustprogress nounwind uwtable
define internal noundef ptr @_ZN4llvm12DenseMapBaseINS_8DenseMapIPKN5clang8CallExprEN12_GLOBAL__N_121ExprInspectionChecker11ReachedStatENS_12DenseMapInfoIS5_vEENS_6detail12DenseMapPairIS5_S8_EEEES5_S8_SA_SD_E10getBucketsEv(ptr noundef nonnull align 1 dereferenceable(1) %0) #0 align 2 {
  %2 = alloca ptr, align 8
  store ptr %0, ptr %2, align 8
  %3 = load ptr, ptr %2, align 8
  %4 = call noundef ptr @_ZNK4llvm8DenseMapIPKN5clang8CallExprEN12_GLOBAL__N_121ExprInspectionChecker11ReachedStatENS_12DenseMapInfoIS4_vEENS_6detail12DenseMapPairIS4_S7_EEE10getBucketsEv(ptr noundef nonnull align 8 dereferenceable(20) %3)
  ret ptr %4
}

; Function Attrs: mustprogress nounwind uwtable
define internal noundef ptr @_ZN4llvm12DenseMapBaseINS_8DenseMapIPKN5clang8CallExprEN12_GLOBAL__N_121ExprInspectionChecker11ReachedStatENS_12DenseMapInfoIS5_vEENS_6detail12DenseMapPairIS5_S8_EEEES5_S8_SA_SD_E15getTombstoneKeyEv() #0 align 2 {
  %1 = call noundef ptr @_ZN4llvm12DenseMapInfoIPKN5clang8CallExprEvE15getTombstoneKeyEv()
  ret ptr %1
}

; Function Attrs: mustprogress nounwind uwtable
define internal noundef ptr @_ZN4llvm12DenseMapBaseINS_8DenseMapIPKN5clang8CallExprEN12_GLOBAL__N_121ExprInspectionChecker11ReachedStatENS_12DenseMapInfoIS5_vEENS_6detail12DenseMapPairIS5_S8_EEEES5_S8_SA_SD_E11getEmptyKeyEv() #0 align 2 {
  %1 = call noundef ptr @_ZN4llvm12DenseMapInfoIPKN5clang8CallExprEvE11getEmptyKeyEv()
  ret ptr %1
}

; Function Attrs: mustprogress nounwind uwtable
define internal noundef i32 @_ZNK4llvm12DenseMapBaseINS_8DenseMapIPKN5clang8CallExprEN12_GLOBAL__N_121ExprInspectionChecker11ReachedStatENS_12DenseMapInfoIS5_vEENS_6detail12DenseMapPairIS5_S8_EEEES5_S8_SA_SD_E13getNumBucketsEv(ptr noundef nonnull align 1 dereferenceable(1) %0) #0 align 2 {
  %2 = alloca ptr, align 8
  store ptr %0, ptr %2, align 8
  %3 = load ptr, ptr %2, align 8
  %4 = call noundef i32 @_ZNK4llvm8DenseMapIPKN5clang8CallExprEN12_GLOBAL__N_121ExprInspectionChecker11ReachedStatENS_12DenseMapInfoIS4_vEENS_6detail12DenseMapPairIS4_S7_EEE13getNumBucketsEv(ptr noundef nonnull align 8 dereferenceable(20) %3)
  ret i32 %4
}

; Function Attrs: mustprogress nounwind uwtable
define linkonce_odr hidden void @_ZN5clang4ento11CheckerBaseD2Ev(ptr noundef nonnull align 8 dereferenceable(32) %0) unnamed_addr #0 comdat align 2 {
  %2 = alloca ptr, align 8
  store ptr %0, ptr %2, align 8
  %3 = load ptr, ptr %2, align 8
  call void @_ZN5clang15ProgramPointTagD2Ev(ptr noundef nonnull align 8 dereferenceable(16) %3) #12
  ret void
}

; Function Attrs: mustprogress nounwind uwtable
define internal void @_ZN4llvm12DenseMapBaseINS_8DenseMapIPKN5clang8CallExprEN12_GLOBAL__N_121ExprInspectionChecker11ReachedStatENS_12DenseMapInfoIS5_vEENS_6detail12DenseMapPairIS5_S8_EEEES5_S8_SA_SD_E10destroyAllEv(ptr noundef nonnull align 1 dereferenceable(1) %0) #0 align 2 {
  %2 = alloca ptr, align 8
  %3 = alloca ptr, align 8
  %4 = alloca ptr, align 8
  %5 = alloca ptr, align 8
  %6 = alloca ptr, align 8
  store ptr %0, ptr %2, align 8
  %7 = load ptr, ptr %2, align 8
  %8 = call noundef i32 @_ZNK4llvm12DenseMapBaseINS_8DenseMapIPKN5clang8CallExprEN12_GLOBAL__N_121ExprInspectionChecker11ReachedStatENS_12DenseMapInfoIS5_vEENS_6detail12DenseMapPairIS5_S8_EEEES5_S8_SA_SD_E13getNumBucketsEv(ptr noundef nonnull align 1 dereferenceable(1) %7)
  %9 = icmp eq i32 %8, 0
  br i1 %9, label %10, label %11

10:                                               ; preds = %1
  br label %41

11:                                               ; preds = %1
  %12 = call noundef ptr @_ZN4llvm12DenseMapBaseINS_8DenseMapIPKN5clang8CallExprEN12_GLOBAL__N_121ExprInspectionChecker11ReachedStatENS_12DenseMapInfoIS5_vEENS_6detail12DenseMapPairIS5_S8_EEEES5_S8_SA_SD_E11getEmptyKeyEv()
  store ptr %12, ptr %3, align 8
  %13 = call noundef ptr @_ZN4llvm12DenseMapBaseINS_8DenseMapIPKN5clang8CallExprEN12_GLOBAL__N_121ExprInspectionChecker11ReachedStatENS_12DenseMapInfoIS5_vEENS_6detail12DenseMapPairIS5_S8_EEEES5_S8_SA_SD_E15getTombstoneKeyEv()
  store ptr %13, ptr %4, align 8
  %14 = call noundef ptr @_ZN4llvm12DenseMapBaseINS_8DenseMapIPKN5clang8CallExprEN12_GLOBAL__N_121ExprInspectionChecker11ReachedStatENS_12DenseMapInfoIS5_vEENS_6detail12DenseMapPairIS5_S8_EEEES5_S8_SA_SD_E10getBucketsEv(ptr noundef nonnull align 1 dereferenceable(1) %7)
  store ptr %14, ptr %5, align 8
  %15 = call noundef ptr @_ZN4llvm12DenseMapBaseINS_8DenseMapIPKN5clang8CallExprEN12_GLOBAL__N_121ExprInspectionChecker11ReachedStatENS_12DenseMapInfoIS5_vEENS_6detail12DenseMapPairIS5_S8_EEEES5_S8_SA_SD_E13getBucketsEndEv(ptr noundef nonnull align 1 dereferenceable(1) %7)
  store ptr %15, ptr %6, align 8
  br label %16

16:                                               ; preds = %38, %11
  %17 = load ptr, ptr %5, align 8
  %18 = load ptr, ptr %6, align 8
  %19 = icmp ne ptr %17, %18
  br i1 %19, label %20, label %41

20:                                               ; preds = %16
  %21 = load ptr, ptr %5, align 8
  %22 = call noundef nonnull align 8 dereferenceable(8) ptr @_ZN4llvm6detail12DenseMapPairIPKN5clang8CallExprEN12_GLOBAL__N_121ExprInspectionChecker11ReachedStatEE8getFirstEv(ptr noundef nonnull align 8 dereferenceable(24) %21)
  %23 = load ptr, ptr %22, align 8
  %24 = load ptr, ptr %3, align 8
  %25 = call noundef zeroext i1 @_ZN4llvm12DenseMapInfoIPKN5clang8CallExprEvE7isEqualES4_S4_(ptr noundef %23, ptr noundef %24)
  br i1 %25, label %35, label %26

26:                                               ; preds = %20
  %27 = load ptr, ptr %5, align 8
  %28 = call noundef nonnull align 8 dereferenceable(8) ptr @_ZN4llvm6detail12DenseMapPairIPKN5clang8CallExprEN12_GLOBAL__N_121ExprInspectionChecker11ReachedStatEE8getFirstEv(ptr noundef nonnull align 8 dereferenceable(24) %27)
  %29 = load ptr, ptr %28, align 8
  %30 = load ptr, ptr %4, align 8
  %31 = call noundef zeroext i1 @_ZN4llvm12DenseMapInfoIPKN5clang8CallExprEvE7isEqualES4_S4_(ptr noundef %29, ptr noundef %30)
  br i1 %31, label %35, label %32

32:                                               ; preds = %26
  %33 = load ptr, ptr %5, align 8
  %34 = call noundef nonnull align 8 dereferenceable(16) ptr @_ZN4llvm6detail12DenseMapPairIPKN5clang8CallExprEN12_GLOBAL__N_121ExprInspectionChecker11ReachedStatEE9getSecondEv(ptr noundef nonnull align 8 dereferenceable(24) %33)
  br label %35

35:                                               ; preds = %32, %26, %20
  %36 = load ptr, ptr %5, align 8
  %37 = call noundef nonnull align 8 dereferenceable(8) ptr @_ZN4llvm6detail12DenseMapPairIPKN5clang8CallExprEN12_GLOBAL__N_121ExprInspectionChecker11ReachedStatEE8getFirstEv(ptr noundef nonnull align 8 dereferenceable(24) %36)
  br label %38

38:                                               ; preds = %35
  %39 = load ptr, ptr %5, align 8
  %40 = getelementptr inbounds %"struct.llvm::detail::DenseMapPair.125", ptr %39, i32 1
  store ptr %40, ptr %5, align 8
  br label %16, !llvm.loop !9

41:                                               ; preds = %16, %10
  ret void
}

; Function Attrs: mustprogress nounwind uwtable
define linkonce_odr hidden void @_ZN5clang4ento7CheckerINS0_4eval4CallEJNS0_5check11DeadSymbolsENS4_11EndAnalysisEEED2Ev(ptr noundef nonnull align 8 dereferenceable(32) %0) unnamed_addr #0 comdat align 2 {
  %2 = alloca ptr, align 8
  store ptr %0, ptr %2, align 8
  %3 = load ptr, ptr %2, align 8
  call void @_ZN5clang4ento11CheckerBaseD2Ev(ptr noundef nonnull align 8 dereferenceable(32) %3) #12
  ret void
}

; Function Attrs: mustprogress nounwind uwtable
define linkonce_odr hidden void @_ZN5clang4ento7BugTypeD2Ev(ptr noundef nonnull align 8 dereferenceable(97) %0) unnamed_addr #0 comdat align 2 {
  %2 = alloca ptr, align 8
  store ptr %0, ptr %2, align 8
  %3 = load ptr, ptr %2, align 8
  store ptr getelementptr inbounds inrange(-16, 24) ({ [5 x ptr] }, ptr @_ZTVN5clang4ento7BugTypeE, i32 0, i32 0, i32 2), ptr %3, align 8
  %4 = getelementptr inbounds nuw %"class.clang::ento::BugType", ptr %3, i32 0, i32 3
  call void @_ZNSt7__cxx1112basic_stringIcSt11char_traitsIcESaIcEED1Ev(ptr noundef nonnull align 8 dereferenceable(32) %4) #12
  %5 = getelementptr inbounds nuw %"class.clang::ento::BugType", ptr %3, i32 0, i32 2
  call void @_ZNSt7__cxx1112basic_stringIcSt11char_traitsIcESaIcEED1Ev(ptr noundef nonnull align 8 dereferenceable(32) %5) #12
  ret void
}

; Function Attrs: mustprogress nounwind uwtable
define internal void @_ZN4llvm8DenseMapIPKN5clang8CallExprEN12_GLOBAL__N_121ExprInspectionChecker11ReachedStatENS_12DenseMapInfoIS4_vEENS_6detail12DenseMapPairIS4_S7_EEED2Ev(ptr noundef nonnull align 8 dereferenceable(20) %0) unnamed_addr #0 align 2 {
  %2 = alloca ptr, align 8
  store ptr %0, ptr %2, align 8
  %3 = load ptr, ptr %2, align 8
  call void @_ZN4llvm12DenseMapBaseINS_8DenseMapIPKN5clang8CallExprEN12_GLOBAL__N_121ExprInspectionChecker11ReachedStatENS_12DenseMapInfoIS5_vEENS_6detail12DenseMapPairIS5_S8_EEEES5_S8_SA_SD_E10destroyAllEv(ptr noundef nonnull align 1 dereferenceable(1) %3)
  %4 = getelementptr inbounds nuw %"class.llvm::DenseMap.122", ptr %3, i32 0, i32 0
  %5 = load ptr, ptr %4, align 8
  %6 = getelementptr inbounds nuw %"class.llvm::DenseMap.122", ptr %3, i32 0, i32 3
  %7 = load i32, ptr %6, align 8
  %8 = zext i32 %7 to i64
  %9 = mul i64 24, %8
  call void @_ZN4llvm17deallocate_bufferEPvmm(ptr noundef %5, i64 noundef %9, i64 noundef 8)
  ret void
}

; Function Attrs: mustprogress nounwind uwtable
define internal void @_ZN12_GLOBAL__N_121ExprInspectionCheckerD2Ev(ptr noundef nonnull align 8 dereferenceable(160) %0) unnamed_addr #0 align 2 {
  %2 = alloca ptr, align 8
  store ptr %0, ptr %2, align 8
  %3 = load ptr, ptr %2, align 8
  store ptr getelementptr inbounds inrange(-16, 32) ({ [6 x ptr] }, ptr @_ZTVN12_GLOBAL__N_121ExprInspectionCheckerE, i32 0, i32 0, i32 2), ptr %3, align 8
  %4 = getelementptr inbounds nuw %"class.(anonymous namespace)::ExprInspectionChecker", ptr %3, i32 0, i32 2
  call void @_ZN4llvm8DenseMapIPKN5clang8CallExprEN12_GLOBAL__N_121ExprInspectionChecker11ReachedStatENS_12DenseMapInfoIS4_vEENS_6detail12DenseMapPairIS4_S7_EEED2Ev(ptr noundef nonnull align 8 dereferenceable(20) %4) #12
  %5 = getelementptr inbounds nuw %"class.(anonymous namespace)::ExprInspectionChecker", ptr %3, i32 0, i32 1
  call void @_ZN5clang4ento7BugTypeD2Ev(ptr noundef nonnull align 8 dereferenceable(97) %5) #12
  call void @_ZN5clang4ento7CheckerINS0_4eval4CallEJNS0_5check11DeadSymbolsENS4_11EndAnalysisEEED2Ev(ptr noundef nonnull align 8 dereferenceable(32) %3) #12
  ret void
}