; Function Attrs: mustprogress nounwind uwtable
define internal void @_ZN12_GLOBAL__N_121ExprInspectionCheckerD2Ev(ptr noundef nonnull align 8 dereferenceable(160) %0) unnamed_addr #0 align 2 {
  store ptr getelementptr inbounds inrange(-16, 32) (i8, ptr @_ZTVN12_GLOBAL__N_121ExprInspectionCheckerE, i64 16), ptr %0, align 8
  %2 = getelementptr inbounds nuw i8, ptr %0, i64 136
  %.val = load ptr, ptr %2, align 8
  %3 = getelementptr inbounds i8, ptr %0, i64 152
  %.val1 = load i32, ptr %3, align 8
  %4 = zext i32 %.val1 to i64
  %5 = mul nuw nsw i64 %4, 24
  tail call void @_ZN4llvm17deallocate_bufferEPvmm(ptr noundef %.val, i64 noundef %5, i64 noundef 8) #23
  %6 = getelementptr inbounds nuw i8, ptr %0, i64 32
  store ptr getelementptr inbounds inrange(-16, 24) (i8, ptr @_ZTVN5clang4ento7BugTypeE, i64 16), ptr %6, align 8
  %7 = getelementptr inbounds i8, ptr %0, i64 88
  tail call void @_ZNSt7__cxx1112basic_stringIcSt11char_traitsIcESaIcEED1Ev(ptr noundef nonnull align 8 dereferenceable(32) %7) #23
  %8 = getelementptr inbounds i8, ptr %0, i64 56
  tail call void @_ZNSt7__cxx1112basic_stringIcSt11char_traitsIcESaIcEED1Ev(ptr noundef nonnull align 8 dereferenceable(32) %8) #23
  tail call void @_ZN5clang15ProgramPointTagD2Ev(ptr noundef nonnull align 8 dereferenceable(16) %0) #23
  ret void
}